; Function Attrs: nofree nosync nounwind memory(readwrite, inaccessiblemem: none) uwtable
define noundef i32 @Bmc_GiaGenerateJust_rec(ptr noundef readonly captures(none) %0, i32 noundef %1, i32 noundef %2, ptr noundef readonly captures(none) %3, ptr noundef readonly captures(none) %4) local_unnamed_addr #0 {
  %6 = getelementptr i8, ptr %0, i64 24
  %7 = icmp slt i32 %1, 0
  br i1 %7, label %tailrecurse.outer._crit_edge, label %.lr.ph.lr.ph

.lr.ph.lr.ph:                                     ; preds = %5
  %.val99111 = load i32, ptr %6, align 8
  %8 = mul nsw i32 %.val99111, %1
  %9 = getelementptr i8, ptr %4, i64 8
  %10 = getelementptr i8, ptr %0, i64 32
  %11 = getelementptr i8, ptr %3, i64 8
  %12 = getelementptr i8, ptr %0, i64 72
  %13 = getelementptr i8, ptr %0, i64 64
  br label %.lr.ph

.lr.ph:                                           ; preds = %.lr.ph.lr.ph, %tailrecurse.outer
  %14 = phi i32 [ %8, %.lr.ph.lr.ph ], [ %62, %tailrecurse.outer ]
  %.tr89.ph113 = phi i32 [ %2, %.lr.ph.lr.ph ], [ %60, %tailrecurse.outer ]
  %.tr88.ph112 = phi i32 [ %1, %.lr.ph.lr.ph ], [ %49, %tailrecurse.outer ]
  %15 = add nsw i32 %14, %.tr89.ph113
  %.val67123 = load ptr, ptr %9, align 8
  %16 = ashr i32 %15, 5
  %17 = sext i32 %16 to i64
  %18 = getelementptr inbounds i32, ptr %.val67123, i64 %17
  %19 = load i32, ptr %18, align 4
  %20 = and i32 %15, 31
  %21 = shl nuw i32 1, %20
  %22 = and i32 %19, %21
  %.not124 = icmp eq i32 %22, 0
  br i1 %.not124, label %.lr.ph126, label %tailrecurse.outer._crit_edge

.lr.ph126:                                        ; preds = %.lr.ph, %tailrecurse.backedge
  %23 = phi i32 [ %45, %tailrecurse.backedge ], [ %21, %.lr.ph ]
  %24 = phi i32 [ %43, %tailrecurse.backedge ], [ %19, %.lr.ph ]
  %25 = phi ptr [ %42, %tailrecurse.backedge ], [ %18, %.lr.ph ]
  %26 = phi i64 [ %41, %tailrecurse.backedge ], [ %17, %.lr.ph ]
  %.tr89100125 = phi i32 [ %.tr89.be, %tailrecurse.backedge ], [ %.tr89.ph113, %.lr.ph ]
  %27 = phi i32 [ %38, %tailrecurse.backedge ], [ %14, %.lr.ph ]
  %28 = or i32 %24, %23
  store i32 %28, ptr %25, align 4
  %.val72 = load ptr, ptr %10, align 8
  %29 = sext i32 %.tr89100125 to i64
  %30 = getelementptr inbounds %struct.Gia_Obj_t_, ptr %.val72, i64 %29
  %.val73 = load i64, ptr %30, align 4
  %31 = and i64 %.val73, 2147483648
  %.not.i = icmp eq i64 %31, 0
  %32 = and i64 %.val73, 536870911
  %33 = icmp eq i64 %32, 536870911
  %narrow.i.not = or i1 %.not.i, %33
  br i1 %narrow.i.not, label %47, label %34

34:                                               ; preds = %.lr.ph126
  %35 = trunc i64 %.val73 to i32
  %36 = and i32 %35, 536870911
  %37 = sub nsw i32 %.tr89100125, %36
  br label %tailrecurse.backedge

tailrecurse.backedge:                             ; preds = %88, %76, %34, %70
  %.tr89.be = phi i32 [ %37, %34 ], [ %75, %70 ], [ %69, %76 ], [ %92, %88 ]
  %.val = load i32, ptr %6, align 8
  %38 = mul nsw i32 %.val, %.tr88.ph112
  %39 = add nsw i32 %38, %.tr89.be
  %.val67 = load ptr, ptr %9, align 8
  %40 = ashr i32 %39, 5
  %41 = sext i32 %40 to i64
  %42 = getelementptr inbounds i32, ptr %.val67, i64 %41
  %43 = load i32, ptr %42, align 4
  %44 = and i32 %39, 31
  %45 = shl nuw i32 1, %44
  %46 = and i32 %43, %45
  %.not = icmp eq i32 %46, 0
  br i1 %.not, label %.lr.ph126, label %tailrecurse.outer._crit_edge

47:                                               ; preds = %.lr.ph126
  %48 = and i64 %.val73, 2684354559
  %narrow.i86.not = icmp eq i64 %48, 2684354559
  br i1 %narrow.i86.not, label %tailrecurse.outer, label %63

tailrecurse.outer:                                ; preds = %47
  %49 = add nsw i32 %.tr88.ph112, -1
  %.val.i = load ptr, ptr %12, align 8
  %50 = getelementptr i8, ptr %.val.i, i64 4
  %.val.val.i = load i32, ptr %50, align 4
  %.val4.i = load ptr, ptr %13, align 8
  %51 = getelementptr i8, ptr %.val4.i, i64 4
  %.val4.val.i = load i32, ptr %51, align 4
  %52 = lshr i64 %.val73, 32
  %53 = trunc nuw i64 %52 to i32
  %54 = and i32 %53, 536870911
  %55 = add i32 %.val.val.i, %54
  %56 = sub i32 %55, %.val4.val.i
  %57 = getelementptr i8, ptr %.val.i, i64 8
  %.val7.val.i = load ptr, ptr %57, align 8
  %58 = sext i32 %56 to i64
  %59 = getelementptr inbounds i32, ptr %.val7.val.i, i64 %58
  %60 = load i32, ptr %59, align 4
  %61 = icmp slt i32 %.tr88.ph112, 1
  %.val99 = load i32, ptr %6, align 8
  %62 = mul nsw i32 %.val99, %49
  br i1 %61, label %tailrecurse.outer._crit_edge, label %.lr.ph

63:                                               ; preds = %47
  %.val68 = load ptr, ptr %11, align 8
  %64 = getelementptr inbounds i32, ptr %.val68, i64 %26
  %65 = load i32, ptr %64, align 4
  %66 = and i32 %65, %23
  %.not66 = icmp eq i32 %66, 0
  %67 = trunc i64 %.val73 to i32
  %68 = and i32 %67, 536870911
  %69 = sub nsw i32 %.tr89100125, %68
  br i1 %.not66, label %76, label %70

70:                                               ; preds = %63
  %71 = tail call i32 @Bmc_GiaGenerateJust_rec(ptr noundef nonnull %0, i32 noundef %.tr88.ph112, i32 noundef %69, ptr noundef nonnull %3, ptr noundef nonnull %4)
  %.val81 = load i64, ptr %30, align 4
  %72 = lshr i64 %.val81, 32
  %73 = trunc nuw i64 %72 to i32
  %74 = and i32 %73, 536870911
  %75 = sub nsw i32 %.tr89100125, %74
  br label %tailrecurse.backedge

76:                                               ; preds = %63
  %77 = add nsw i32 %69, %27
  %78 = ashr i32 %77, 5
  %79 = sext i32 %78 to i64
  %80 = getelementptr inbounds i32, ptr %.val68, i64 %79
  %81 = load i32, ptr %80, align 4
  %82 = and i32 %77, 31
  %83 = lshr i32 %81, %82
  %84 = lshr i32 %67, 29
  %85 = xor i32 %83, %84
  %86 = and i32 %85, 1
  %87 = icmp eq i32 %86, 0
  br i1 %87, label %tailrecurse.backedge, label %88

88:                                               ; preds = %76
  %89 = lshr i64 %.val73, 32
  %90 = trunc nuw i64 %89 to i32
  %91 = and i32 %90, 536870911
  %92 = sub nsw i32 %.tr89100125, %91
  %93 = add nsw i32 %92, %27
  %94 = ashr i32 %93, 5
  %95 = sext i32 %94 to i64
  %96 = getelementptr inbounds i32, ptr %.val68, i64 %95
  %97 = load i32, ptr %96, align 4
  %98 = and i32 %93, 31
  %99 = lshr i32 %97, %98
  %100 = lshr i64 %.val73, 61
  %101 = trunc nuw nsw i64 %100 to i32
  %102 = xor i32 %99, %101
  %103 = and i32 %102, 1
  %104 = icmp eq i32 %103, 0
  br i1 %104, label %tailrecurse.backedge, label %tailrecurse.outer._crit_edge

tailrecurse.outer._crit_edge:                     ; preds = %tailrecurse.outer, %.lr.ph, %88, %tailrecurse.backedge, %5
  ret i32 0
}